ccopy_reg
_reconstructor
p0
(csklearn.pipeline
Pipeline
p1
c__builtin__
object
p2
Ntp3
Rp4
(dp5
S'_sklearn_version'
p6
S'0.18.2'
p7
sS'steps'
p8
(lp9
(S'normalize'
p10
g0
(csklearn.preprocessing.data
MinMaxScaler
p11
g2
Ntp12
Rp13
(dp14
S'copy'
p15
I01
sg6
g7
sS'feature_range'
p16
(I0
I1
tp17
sbtp18
a(S'clf'
p19
g0
(csklearn.svm.classes
SVC
p20
g2
Ntp21
Rp22
(dp23
S'_impl'
p24
S'c_svc'
p25
sS'kernel'
p26
S'sigmoid'
p27
sS'C'
p28
I10
sS'verbose'
p29
I00
sS'probability'
p30
I00
sS'coef0'
p31
F0.0
sS'epsilon'
p32
F0.0
sS'max_iter'
p33
I-1
sS'decision_function_shape'
p34
NsS'random_state'
p35
I42
sg6
g7
sS'tol'
p36
F0.001
sS'cache_size'
p37
I200
sS'class_weight'
p38
NsS'shrinking'
p39
I01
sS'nu'
p40
F0.0
sS'gamma'
p41
F0.5
sS'degree'
p42
I3
sbtp43
asb.