(dp0
S'METTS MARK'
p1
(dp2
S'to_messages'
p3
I807
sS'deferral_payments'
p4
I0
sS'ratio_sent_messages'
p5
F0.034482758620689655
sS'expenses'
p6
I94299
sS'poi'
p7
I00
sS'long_term_incentive'
p8
I0
sS'from_poi_to_this_person'
p9
I38
sS'deferred_income'
p10
I0
sS'restricted_stock_deferred'
p11
I0
sS'shared_receipt_with_poi'
p12
I702
sS'loan_advances'
p13
I0
sS'from_messages'
p14
I29
sS'other'
p15
I1740
sS'director_fees'
p16
I0
sS'bonus'
p17
I600000
sS'total_stock_value'
p18
I585062
sS'from_this_person_to_poi'
p19
I1
sS'restricted_stock'
p20
I585062
sS'salary'
p21
I365788
sS'ratio_receipt_messages'
p22
F0.04708798017348203
sS'total_payments'
p23
I1061827
sS'exercised_stock_options'
p24
I0
sS'ratio_shared_receipt'
p25
F0.8698884758364313
ssS'BAXTER JOHN C'
p26
(dp27
g3
I0
sg4
I1295738
sg5
F0.0
sg6
I11200
sg7
I00
sg8
I1586055
sg9
I0
sg10
I-1386055
sg11
I0
sg12
I0
sg13
I0
sg14
I0
sg15
I2660303
sg16
I0
sg17
I1200000
sg18
I10623258
sg19
I0
sg20
I3942714
sg21
I267102
sg22
F0.0
sg23
I5634343
sg24
I6680544
sg25
F0.0
ssS'ELLIOTT STEVEN'
p28
(dp29
g3
I0
sg4
I0
sg5
F0.0
sg6
I78552
sg7
I00
sg8
I0
sg9
I0
sg10
I-400729
sg11
I0
sg12
I0
sg13
I0
sg14
I0
sg15
I12961
sg16
I0
sg17
I350000
sg18
I6678735
sg19
I0
sg20
I1788391
sg21
I170941
sg22
F0.0
sg23
I211725
sg24
I4890344
sg25
F0.0
ssS'CORDES WILLIAM R'
p30
(dp31
g3
I764
sg4
I0
sg5
F0.0
sg6
I0
sg7
I00
sg8
I0
sg9
I10
sg10
I0
sg11
I0
sg12
I58
sg13
I0
sg14
I12
sg15
I0
sg16
I0
sg17
I0
sg18
I1038185
sg19
I0
sg20
I386335
sg21
I0
sg22
F0.013089005235602094
sg23
I0
sg24
I651850
sg25
F0.07591623036649214
ssS'HANNON KEVIN P'
p32
(dp33
g3
I1045
sg4
I0
sg5
F0.65625
sg6
I34039
sg7
I01
sg8
I1617011
sg9
I32
sg10
I-3117011
sg11
I0
sg12
I1035
sg13
I0
sg14
I32
sg15
I11350
sg16
I0
sg17
I1500000
sg18
I6391065
sg19
I21
sg20
I853064
sg21
I243293
sg22
F0.03062200956937799
sg23
I288682
sg24
I5538001
sg25
F0.9904306220095693
ssS'MORDAUNT KRISTINA M'
p34
(dp35
g3
I0
sg4
I0
sg5
F0.0
sg6
I35018
sg7
I00
sg8
I0
sg9
I0
sg10
I0
sg11
I0
sg12
I0
sg13
I0
sg14
I0
sg15
I1411
sg16
I0
sg17
I325000
sg18
I208510
sg19
I0
sg20
I208510
sg21
I267093
sg22
F0.0
sg23
I628522
sg24
I0
sg25
F0.0
ssS'MEYER ROCKFORD G'
p36
(dp37
g3
I232
sg4
I1848227
sg5
F0.0
sg6
I0
sg7
I00
sg8
I0
sg9
I0
sg10
I0
sg11
I0
sg12
I22
sg13
I0
sg14
I28
sg15
I0
sg16
I0
sg17
I0
sg18
I955873
sg19
I0
sg20
I462384
sg21
I0
sg22
F0.0
sg23
I1848227
sg24
I493489
sg25
F0.09482758620689655
ssS'MCMAHON JEFFREY'
p38
(dp39
g3
I2355
sg4
I0
sg5
F0.5416666666666666
sg6
I137108
sg7
I00
sg8
I694862
sg9
I58
sg10
I0
sg11
I0
sg12
I2228
sg13
I0
sg14
I48
sg15
I297353
sg16
I0
sg17
I2600000
sg18
I1662855
sg19
I26
sg20
I558801
sg21
I370448
sg22
F0.024628450106157114
sg23
I4099771
sg24
I1104054
sg25
F0.9460721868365181
ssS'HORTON STANLEY C'
p40
(dp41
g3
I2350
sg4
I3131860
sg5
F0.013979496738117428
sg6
I0
sg7
I00
sg8
I0
sg9
I44
sg10
I0
sg11
I0
sg12
I1074
sg13
I0
sg14
I1073
sg15
I0
sg16
I0
sg17
I0
sg18
I7256648
sg19
I15
sg20
I2046079
sg21
I0
sg22
F0.01872340425531915
sg23
I3131860
sg24
I5210569
sg25
F0.4570212765957447
ssS'PIPER GREGORY F'
p42
(dp43
g3
I1238
sg4
I1130036
sg5
F0.21621621621621623
sg6
I43057
sg7
I00
sg8
I0
sg9
I61
sg10
I-33333
sg11
I-409554
sg12
I742
sg13
I0
sg14
I222
sg15
I778
sg16
I0
sg17
I400000
sg18
I880290
sg19
I48
sg20
I409554
sg21
I197091
sg22
F0.049273021001615507
sg23
I1737629
sg24
I880290
sg25
F0.5993537964458805
ssS'HUMPHREY GENE E'
p44
(dp45
g3
I128
sg4
I2964506
sg5
F1.0
sg6
I4994
sg7
I00
sg8
I0
sg9
I10
sg10
I0
sg11
I0
sg12
I119
sg13
I0
sg14
I17
sg15
I0
sg16
I0
sg17
I0
sg18
I2282768
sg19
I17
sg20
I0
sg21
I130724
sg22
F0.078125
sg23
I3100224
sg24
I2282768
sg25
F0.9296875
ssS'UMANOFF ADAM S'
p46
(dp47
g3
I111
sg4
I0
sg5
F0.0
sg6
I53122
sg7
I00
sg8
I0
sg9
I12
sg10
I0
sg11
I0
sg12
I41
sg13
I0
sg14
I18
sg15
I0
sg16
I0
sg17
I788750
sg18
I0
sg19
I0
sg20
I0
sg21
I288589
sg22
F0.10810810810810811
sg23
I1130461
sg24
I0
sg25
F0.36936936936936937
ssS'BLACHMAN JEREMY M'
p48
(dp49
g3
I2475
sg4
I0
sg5
F0.14285714285714285
sg6
I84208
sg7
I00
sg8
I831809
sg9
I25
sg10
I0
sg11
I0
sg12
I2326
sg13
I0
sg14
I14
sg15
I272
sg16
I0
sg17
I850000
sg18
I954354
sg19
I2
sg20
I189041
sg21
I248546
sg22
F0.010101010101010102
sg23
I2014835
sg24
I765313
sg25
F0.9397979797979797
ssS'SUNDE MARTIN'
p50
(dp51
g3
I2647
sg4
I0
sg5
F0.34210526315789475
sg6
I0
sg7
I00
sg8
I476451
sg9
I37
sg10
I0
sg11
I0
sg12
I2565
sg13
I0
sg14
I38
sg15
I111122
sg16
I0
sg17
I700000
sg18
I698920
sg19
I13
sg20
I698920
sg21
I257486
sg22
F0.013978088401964487
sg23
I1545059
sg24
I0
sg25
F0.9690215338118625
ssS'GIBBS DANA R'
p52
(dp53
g3
I169
sg4
I504610
sg5
F0.0
sg6
I0
sg7
I00
sg8
I461912
sg9
I0
sg10
I0
sg11
I0
sg12
I23
sg13
I0
sg14
I12
sg15
I0
sg16
I0
sg17
I0
sg18
I2218275
sg19
I0
sg20
I0
sg21
I0
sg22
F0.0
sg23
I966522
sg24
I2218275
sg25
F0.13609467455621302
ssS'LOWRY CHARLES P'
p54
(dp55
g3
I0
sg4
I0
sg5
F0.0
sg6
I0
sg7
I00
sg8
I0
sg9
I0
sg10
I0
sg11
I-153686
sg12
I0
sg13
I0
sg14
I0
sg15
I0
sg16
I0
sg17
I0
sg18
I372205
sg19
I0
sg20
I153686
sg21
I0
sg22
F0.0
sg23
I0
sg24
I372205
sg25
F0.0
ssS'COLWELL WESLEY'
p56
(dp57
g3
I1758
sg4
I27610
sg5
F0.275
sg6
I16514
sg7
I01
sg8
I0
sg9
I240
sg10
I-144062
sg11
I0
sg12
I1132
sg13
I0
sg14
I40
sg15
I101740
sg16
I0
sg17
I1200000
sg18
I698242
sg19
I11
sg20
I698242
sg21
I288542
sg22
F0.13651877133105803
sg23
I1490344
sg24
I0
sg25
F0.6439135381114903
ssS'MULLER MARK S'
p58
(dp59
g3
I136
sg4
I842924
sg5
F0.0
sg6
I0
sg7
I00
sg8
I1725545
sg9
I12
sg10
I-719000
sg11
I0
sg12
I114
sg13
I0
sg14
I16
sg15
I947
sg16
I0
sg17
I1100000
sg18
I1416848
sg19
I0
sg20
I360528
sg21
I251654
sg22
F0.08823529411764706
sg23
I3202070
sg24
I1056320
sg25
F0.8382352941176471
ssS'JACKSON CHARLENE R'
p60
(dp61
g3
I258
sg4
I0
sg5
F0.3392857142857143
sg6
I10181
sg7
I00
sg8
I0
sg9
I25
sg10
I0
sg11
I0
sg12
I117
sg13
I0
sg14
I56
sg15
I2435
sg16
I0
sg17
I250000
sg18
I725735
sg19
I19
sg20
I540672
sg21
I288558
sg22
F0.09689922480620156
sg23
I551174
sg24
I185063
sg25
F0.45348837209302323
ssS'WESTFAHL RICHARD K'
p62
(dp63
g3
I0
sg4
I0
sg5
F0.0
sg6
I51870
sg7
I00
sg8
I256191
sg9
I0
sg10
I-10800
sg11
I0
sg12
I0
sg13
I0
sg14
I0
sg15
I401130
sg16
I0
sg17
I0
sg18
I384930
sg19
I0
sg20
I384930
sg21
I63744
sg22
F0.0
sg23
I762135
sg24
I0
sg25
F0.0
ssS'WALTERS GARETH W'
p64
(dp65
g3
I0
sg4
I53625
sg5
F0.0
sg6
I33785
sg7
I00
sg8
I0
sg9
I0
sg10
I0
sg11
I0
sg12
I0
sg13
I0
sg14
I0
sg15
I0
sg16
I0
sg17
I0
sg18
I1030329
sg19
I0
sg20
I0
sg21
I0
sg22
F0.0
sg23
I87410
sg24
I1030329
sg25
F0.0
ssS'WALLS JR ROBERT H'
p66
(dp67
g3
I671
sg4
I0
sg5
F0.0
sg6
I50936
sg7
I00
sg8
I540751
sg9
I17
sg10
I0
sg11
I0
sg12
I215
sg13
I0
sg14
I146
sg15
I2
sg16
I0
sg17
I850000
sg18
I5898997
sg19
I0
sg20
I1552453
sg21
I357091
sg22
F0.02533532041728763
sg23
I1798780
sg24
I4346544
sg25
F0.3204172876304024
ssS'KITCHEN LOUISE'
p68
(dp69
g3
I8305
sg4
I0
sg5
F0.11226851851851852
sg6
I5774
sg7
I00
sg8
I0
sg9
I251
sg10
I0
sg11
I0
sg12
I3669
sg13
I0
sg14
I1728
sg15
I93925
sg16
I0
sg17
I3100000
sg18
I547143
sg19
I194
sg20
I466101
sg21
I271442
sg22
F0.030222757375075255
sg23
I3471141
sg24
I81042
sg25
F0.441782059000602
ssS'CHAN RONNIE'
p70
(dp71
g3
I0
sg4
I0
sg5
F0.0
sg6
I0
sg7
I00
sg8
I0
sg9
I0
sg10
I-98784
sg11
I-32460
sg12
I0
sg13
I0
sg14
I0
sg15
I0
sg16
I98784
sg17
I0
sg18
I0
sg19
I0
sg20
I32460
sg21
I0
sg22
F0.0
sg23
I0
sg24
I0
sg25
F0.0
ssS'BELFER ROBERT'
p72
(dp73
g3
I0
sg4
I-102500
sg5
F0.0
sg6
I0
sg7
I00
sg8
I0
sg9
I0
sg10
I0
sg11
I44093
sg12
I0
sg13
I0
sg14
I0
sg15
I0
sg16
I3285
sg17
I0
sg18
I-44093
sg19
I0
sg20
I0
sg21
I0
sg22
F0.0
sg23
I102500
sg24
I3285
sg25
F0.0
ssS'SHANKMAN JEFFREY A'
p74
(dp75
g3
I3221
sg4
I0
sg5
F0.030958597538232
sg6
I178979
sg7
I00
sg8
I554422
sg9
I94
sg10
I0
sg11
I0
sg12
I1730
sg13
I0
sg14
I2681
sg15
I1191
sg16
I0
sg17
I2000000
sg18
I2072035
sg19
I83
sg20
I630137
sg21
I304110
sg22
F0.029183483390251473
sg23
I3038702
sg24
I1441898
sg25
F0.5371002794163303
ssS'WODRASKA JOHN'
p76
(dp77
g3
I0
sg4
I0
sg5
F0.0
sg6
I0
sg7
I00
sg8
I0
sg9
I0
sg10
I0
sg11
I0
sg12
I0
sg13
I0
sg14
I0
sg15
I189583
sg16
I0
sg17
I0
sg18
I0
sg19
I0
sg20
I0
sg21
I0
sg22
F0.0
sg23
I189583
sg24
I0
sg25
F0.0
ssS'BERGSIEKER RICHARD P'
p78
(dp79
g3
I383
sg4
I0
sg5
F0.0
sg6
I59175
sg7
I00
sg8
I180250
sg9
I4
sg10
I-485813
sg11
I0
sg12
I233
sg13
I0
sg14
I59
sg15
I427316
sg16
I0
sg17
I250000
sg18
I659249
sg19
I0
sg20
I659249
sg21
I187922
sg22
F0.010443864229765013
sg23
I618850
sg24
I0
sg25
F0.608355091383812
ssS'URQUHART JOHN A'
p80
(dp81
g3
I0
sg4
I0
sg5
F0.0
sg6
I228656
sg7
I00
sg8
I0
sg9
I0
sg10
I-36666
sg11
I0
sg12
I0
sg13
I0
sg14
I0
sg15
I0
sg16
I36666
sg17
I0
sg18
I0
sg19
I0
sg20
I0
sg21
I0
sg22
F0.0
sg23
I228656
sg24
I0
sg25
F0.0
ssS'BIBI PHILIPPE A'
p82
(dp83
g3
I1607
sg4
I0
sg5
F0.2
sg6
I38559
sg7
I00
sg8
I369721
sg9
I23
sg10
I0
sg11
I0
sg12
I1336
sg13
I0
sg14
I40
sg15
I425688
sg16
I0
sg17
I1000000
sg18
I1843816
sg19
I8
sg20
I378082
sg21
I213625
sg22
F0.01431238332296204
sg23
I2047593
sg24
I1465734
sg25
F0.8313627878033603
ssS'PIRO JIM'
p84
(dp85
g3
I58
sg4
I0
sg5
F0.0625
sg6
I0
sg7
I00
sg8
I0
sg9
I0
sg10
I0
sg11
I0
sg12
I3
sg13
I0
sg14
I16
sg15
I0
sg16
I0
sg17
I0
sg18
I47304
sg19
I1
sg20
I47304
sg21
I0
sg22
F0.0
sg23
I0
sg24
I0
sg25
F0.05172413793103448
ssS'RIEKER PAULA H'
p86
(dp87
g3
I1328
sg4
I214678
sg5
F0.5853658536585366
sg6
I33271
sg7
I01
sg8
I0
sg9
I35
sg10
I-100000
sg11
I0
sg12
I1258
sg13
I0
sg14
I82
sg15
I1950
sg16
I0
sg17
I700000
sg18
I1918887
sg19
I48
sg20
I283649
sg21
I249201
sg22
F0.02635542168674699
sg23
I1099100
sg24
I1635238
sg25
F0.947289156626506
ssS'WHALEY DAVID A'
p88
(dp89
g3
I0
sg4
I0
sg5
F0.0
sg6
I0
sg7
I00
sg8
I0
sg9
I0
sg10
I0
sg11
I0
sg12
I0
sg13
I0
sg14
I0
sg15
I0
sg16
I0
sg17
I0
sg18
I98718
sg19
I0
sg20
I0
sg21
I0
sg22
F0.0
sg23
I0
sg24
I98718
sg25
F0.0
ssS'BECK SALLY W'
p90
(dp91
g3
I7315
sg4
I0
sg5
F0.08887865530739121
sg6
I37172
sg7
I00
sg8
I0
sg9
I144
sg10
I0
sg11
I0
sg12
I2639
sg13
I0
sg14
I4343
sg15
I566
sg16
I0
sg17
I700000
sg18
I126027
sg19
I386
sg20
I126027
sg21
I231330
sg22
F0.01968557758031442
sg23
I969068
sg24
I0
sg25
F0.36076555023923446
ssS'HAUG DAVID L'
p92
(dp93
g3
I573
sg4
I0
sg5
F0.3684210526315789
sg6
I475
sg7
I00
sg8
I0
sg9
I4
sg10
I0
sg11
I0
sg12
I471
sg13
I0
sg14
I19
sg15
I0
sg16
I0
sg17
I0
sg18
I2217299
sg19
I7
sg20
I2217299
sg21
I0
sg22
F0.006980802792321117
sg23
I475
sg24
I0
sg25
F0.8219895287958116
ssS'ECHOLS JOHN B'
p94
(dp95
g3
I0
sg4
I0
sg5
F0.0
sg6
I21530
sg7
I00
sg8
I2234774
sg9
I0
sg10
I0
sg11
I0
sg12
I0
sg13
I0
sg14
I0
sg15
I53775
sg16
I0
sg17
I200000
sg18
I1008941
sg19
I0
sg20
I407503
sg21
I182245
sg22
F0.0
sg23
I2692324
sg24
I601438
sg25
F0.0
ssS'MENDELSOHN JOHN'
p96
(dp97
g3
I0
sg4
I0
sg5
F0.0
sg6
I148
sg7
I00
sg8
I0
sg9
I0
sg10
I-103750
sg11
I0
sg12
I0
sg13
I0
sg14
I0
sg15
I0
sg16
I103750
sg17
I0
sg18
I0
sg19
I0
sg20
I0
sg21
I0
sg22
F0.0
sg23
I148
sg24
I0
sg25
F0.0
ssS'HICKERSON GARY J'
p98
(dp99
g3
I1320
sg4
I0
sg5
F0.037037037037037035
sg6
I98849
sg7
I00
sg8
I69223
sg9
I40
sg10
I0
sg11
I0
sg12
I900
sg13
I0
sg14
I27
sg15
I1936
sg16
I0
sg17
I1700000
sg18
I441096
sg19
I1
sg20
I441096
sg21
I211788
sg22
F0.030303030303030304
sg23
I2081796
sg24
I0
sg25
F0.6818181818181818
ssS'CLINE KENNETH W'
p100
(dp101
g3
I0
sg4
I0
sg5
F0.0
sg6
I0
sg7
I00
sg8
I0
sg9
I0
sg10
I0
sg11
I-472568
sg12
I0
sg13
I0
sg14
I0
sg15
I0
sg16
I0
sg17
I0
sg18
I189518
sg19
I0
sg20
I662086
sg21
I0
sg22
F0.0
sg23
I0
sg24
I0
sg25
F0.0
ssS'LEWIS RICHARD'
p102
(dp103
g3
I952
sg4
I0
sg5
F0.0
sg6
I0
sg7
I00
sg8
I0
sg9
I10
sg10
I0
sg11
I0
sg12
I739
sg13
I0
sg14
I26
sg15
I0
sg16
I0
sg17
I0
sg18
I850477
sg19
I0
sg20
I0
sg21
I0
sg22
F0.01050420168067227
sg23
I0
sg24
I850477
sg25
F0.7762605042016807
ssS'HAYES ROBERT E'
p104
(dp105
g3
I504
sg4
I7961
sg5
F0.0
sg6
I0
sg7
I00
sg8
I0
sg9
I16
sg10
I0
sg11
I0
sg12
I50
sg13
I0
sg14
I12
sg15
I0
sg16
I0
sg17
I0
sg18
I151418
sg19
I0
sg20
I151418
sg21
I0
sg22
F0.031746031746031744
sg23
I7961
sg24
I0
sg25
F0.0992063492063492
ssS'KOPPER MICHAEL J'
p106
(dp107
g3
I0
sg4
I0
sg5
F0.0
sg6
I118134
sg7
I01
sg8
I602671
sg9
I0
sg10
I0
sg11
I0
sg12
I0
sg13
I0
sg14
I0
sg15
I907502
sg16
I0
sg17
I800000
sg18
I985032
sg19
I0
sg20
I985032
sg21
I224305
sg22
F0.0
sg23
I2652612
sg24
I0
sg25
F0.0
ssS'LEFF DANIEL P'
p108
(dp109
g3
I2822
sg4
I0
sg5
F0.2222222222222222
sg6
I0
sg7
I00
sg8
I1387399
sg9
I67
sg10
I0
sg11
I0
sg12
I2672
sg13
I0
sg14
I63
sg15
I3083
sg16
I0
sg17
I1000000
sg18
I360528
sg19
I14
sg20
I360528
sg21
I273746
sg22
F0.02374202693125443
sg23
I2664228
sg24
I0
sg25
F0.9468462083628633
ssS'LAVORATO JOHN J'
p110
(dp111
g3
I7259
sg4
I0
sg5
F0.15899419729206962
sg6
I49537
sg7
I00
sg8
I2035380
sg9
I528
sg10
I0
sg11
I0
sg12
I3962
sg13
I0
sg14
I2585
sg15
I1552
sg16
I0
sg17
I8000000
sg18
I5167144
sg19
I411
sg20
I1008149
sg21
I339288
sg22
F0.07273729163796666
sg23
I10425757
sg24
I4158995
sg25
F0.5458052073288332
ssS'BERBERIAN DAVID'
p112
(dp113
g3
I0
sg4
I0
sg5
F0.0
sg6
I11892
sg7
I00
sg8
I0
sg9
I0
sg10
I0
sg11
I0
sg12
I0
sg13
I0
sg14
I0
sg15
I0
sg16
I0
sg17
I0
sg18
I2493616
sg19
I0
sg20
I869220
sg21
I216582
sg22
F0.0
sg23
I228474
sg24
I1624396
sg25
F0.0
ssS'DETMERING TIMOTHY J'
p114
(dp115
g3
I0
sg4
I875307
sg5
F0.0
sg6
I52255
sg7
I00
sg8
I415657
sg9
I0
sg10
I-775241
sg11
I-315068
sg12
I0
sg13
I0
sg14
I0
sg15
I1105
sg16
I0
sg17
I425000
sg18
I2027865
sg19
I0
sg20
I315068
sg21
I210500
sg22
F0.0
sg23
I1204583
sg24
I2027865
sg25
F0.0
ssS'WAKEHAM JOHN'
p116
(dp117
g3
I0
sg4
I0
sg5
F0.0
sg6
I103773
sg7
I00
sg8
I0
sg9
I0
sg10
I0
sg11
I0
sg12
I0
sg13
I0
sg14
I0
sg15
I0
sg16
I109298
sg17
I0
sg18
I0
sg19
I0
sg20
I0
sg21
I0
sg22
F0.0
sg23
I213071
sg24
I0
sg25
F0.0
ssS'POWERS WILLIAM'
p118
(dp119
g3
I653
sg4
I0
sg5
F0.0
sg6
I0
sg7
I00
sg8
I0
sg9
I0
sg10
I-17500
sg11
I0
sg12
I12
sg13
I0
sg14
I26
sg15
I0
sg16
I17500
sg17
I0
sg18
I0
sg19
I0
sg20
I0
sg21
I0
sg22
F0.0
sg23
I0
sg24
I0
sg25
F0.018376722817764167
ssS'GOLD JOSEPH'
p120
(dp121
g3
I0
sg4
I0
sg5
F0.0
sg6
I0
sg7
I00
sg8
I304805
sg9
I0
sg10
I0
sg11
I0
sg12
I0
sg13
I0
sg14
I0
sg15
I819288
sg16
I0
sg17
I750000
sg18
I877611
sg19
I0
sg20
I441096
sg21
I272880
sg22
F0.0
sg23
I2146973
sg24
I436515
sg25
F0.0
ssS'BANNANTINE JAMES M'
p122
(dp123
g3
I566
sg4
I0
sg5
F0.0
sg6
I56301
sg7
I00
sg8
I0
sg9
I39
sg10
I-5104
sg11
I-560222
sg12
I465
sg13
I0
sg14
I29
sg15
I864523
sg16
I0
sg17
I0
sg18
I5243487
sg19
I0
sg20
I1757552
sg21
I477
sg22
F0.06890459363957598
sg23
I916197
sg24
I4046157
sg25
F0.8215547703180212
ssS'DUNCAN JOHN H'
p124
(dp125
g3
I0
sg4
I0
sg5
F0.0
sg6
I0
sg7
I00
sg8
I0
sg9
I0
sg10
I-25000
sg11
I0
sg12
I0
sg13
I0
sg14
I0
sg15
I0
sg16
I102492
sg17
I0
sg18
I371750
sg19
I0
sg20
I0
sg21
I0
sg22
F0.0
sg23
I77492
sg24
I371750
sg25
F0.0
ssS'SHAPIRO RICHARD S'
p126
(dp127
g3
I15149
sg4
I0
sg5
F0.053497942386831275
sg6
I137767
sg7
I00
sg8
I0
sg9
I74
sg10
I0
sg11
I0
sg12
I4527
sg13
I0
sg14
I1215
sg15
I705
sg16
I0
sg17
I650000
sg18
I987001
sg19
I65
sg20
I379164
sg21
I269076
sg22
F0.0048848108786058485
sg23
I1057548
sg24
I607837
sg25
F0.29883160604660375
ssS'SHERRIFF JOHN R'
p128
(dp129
g3
I3187
sg4
I0
sg5
F0.25
sg6
I0
sg7
I00
sg8
I554422
sg9
I28
sg10
I0
sg11
I0
sg12
I2103
sg13
I0
sg14
I92
sg15
I1852186
sg16
I0
sg17
I1500000
sg18
I3128982
sg19
I23
sg20
I1293424
sg21
I428780
sg22
F0.008785691873235017
sg23
I4335388
sg24
I1835558
sg25
F0.6598682146219015
ssS'SHELBY REX'
p130
(dp131
g3
I225
sg4
I0
sg5
F0.358974358974359
sg6
I22884
sg7
I01
sg8
I0
sg9
I13
sg10
I-4167
sg11
I0
sg12
I91
sg13
I0
sg14
I39
sg15
I1573324
sg16
I0
sg17
I200000
sg18
I2493616
sg19
I14
sg20
I869220
sg21
I211844
sg22
F0.057777777777777775
sg23
I2003885
sg24
I1624396
sg25
F0.40444444444444444
ssS'LEMAISTRE CHARLES'
p132
(dp133
g3
I0
sg4
I0
sg5
F0.0
sg6
I0
sg7
I00
sg8
I0
sg9
I0
sg10
I-25000
sg11
I0
sg12
I0
sg13
I0
sg14
I0
sg15
I0
sg16
I112492
sg17
I0
sg18
I412878
sg19
I0
sg20
I0
sg21
I0
sg22
F0.0
sg23
I87492
sg24
I412878
sg25
F0.0
ssS'DEFFNER JOSEPH M'
p134
(dp135
g3
I714
sg4
I0
sg5
F0.05405405405405406
sg6
I41626
sg7
I00
sg8
I335349
sg9
I115
sg10
I0
sg11
I0
sg12
I552
sg13
I0
sg14
I74
sg15
I25553
sg16
I0
sg17
I600000
sg18
I159211
sg19
I4
sg20
I141833
sg21
I206121
sg22
F0.16106442577030813
sg23
I1208649
sg24
I17378
sg25
F0.773109243697479
ssS'KISHKILL JOSEPH G'
p136
(dp137
g3
I0
sg4
I0
sg5
F0.0
sg6
I116335
sg7
I00
sg8
I0
sg9
I0
sg10
I-51042
sg11
I0
sg12
I0
sg13
I0
sg14
I0
sg15
I465357
sg16
I0
sg17
I0
sg18
I1034346
sg19
I0
sg20
I1034346
sg21
I174246
sg22
F0.0
sg23
I704896
sg24
I0
sg25
F0.0
ssS'WHALLEY LAWRENCE G'
p138
(dp139
g3
I6019
sg4
I0
sg5
F0.04316546762589928
sg6
I57838
sg7
I00
sg8
I808346
sg9
I186
sg10
I0
sg11
I0
sg12
I3920
sg13
I0
sg14
I556
sg15
I301026
sg16
I0
sg17
I3000000
sg18
I6079137
sg19
I24
sg20
I2796177
sg21
I510364
sg22
F0.03090214321315833
sg23
I4677574
sg24
I3282960
sg25
F0.6512709752450573
ssS'MCCARTY DANNY J'
p140
(dp141
g3
I1433
sg4
I0
sg5
F0.009302325581395349
sg6
I0
sg7
I00
sg8
I0
sg9
I25
sg10
I0
sg11
I0
sg12
I508
sg13
I0
sg14
I215
sg15
I0
sg16
I0
sg17
I0
sg18
I758931
sg19
I2
sg20
I94556
sg21
I0
sg22
F0.017445917655268667
sg23
I0
sg24
I664375
sg25
F0.35450104675505933
ssS'MCCONNELL MICHAEL S'
p142
(dp143
g3
I3329
sg4
I0
sg5
F0.07075127644055434
sg6
I81364
sg7
I00
sg8
I554422
sg9
I92
sg10
I0
sg11
I0
sg12
I2189
sg13
I0
sg14
I2742
sg15
I540
sg16
I0
sg17
I1100000
sg18
I3101279
sg19
I194
sg20
I1478269
sg21
I365038
sg22
F0.02763592670471613
sg23
I2101364
sg24
I1623010
sg25
F0.657554821267648
ssS'DELAINEY DAVID W'
p144
(dp145
g3
I3093
sg4
I0
sg5
F0.198435972629521
sg6
I86174
sg7
I01
sg8
I1294981
sg9
I66
sg10
I0
sg11
I0
sg12
I2097
sg13
I0
sg14
I3069
sg15
I1661
sg16
I0
sg17
I3000000
sg18
I3614261
sg19
I609
sg20
I1323148
sg21
I365163
sg22
F0.02133850630455868
sg23
I4747979
sg24
I2291113
sg25
F0.6779825412221144
ssS'SULLIVAN-SHAKLOVITZ COLLEEN'
p146
(dp147
g3
I0
sg4
I181993
sg5
F0.0
sg6
I0
sg7
I00
sg8
I554422
sg9
I0
sg10
I0
sg11
I0
sg12
I0
sg13
I0
sg14
I0
sg15
I162
sg16
I0
sg17
I100000
sg18
I1362375
sg19
I0
sg20
I0
sg21
I162779
sg22
F0.0
sg23
I999356
sg24
I1362375
sg25
F0.0
ssS'WROBEL BRUCE'
p148
(dp149
g3
I0
sg4
I0
sg5
F0.0
sg6
I0
sg7
I00
sg8
I0
sg9
I0
sg10
I0
sg11
I0
sg12
I0
sg13
I0
sg14
I0
sg15
I0
sg16
I0
sg17
I0
sg18
I139130
sg19
I0
sg20
I0
sg21
I0
sg22
F0.0
sg23
I0
sg24
I139130
sg25
F0.0
ssS'LINDHOLM TOD A'
p150
(dp151
g3
I0
sg4
I204075
sg5
F0.0
sg6
I57727
sg7
I00
sg8
I175000
sg9
I0
sg10
I0
sg11
I0
sg12
I0
sg13
I0
sg14
I0
sg15
I2630
sg16
I0
sg17
I200000
sg18
I3064208
sg19
I0
sg20
I514847
sg21
I236457
sg22
F0.0
sg23
I875889
sg24
I2549361
sg25
F0.0
ssS'MEYER JEROME J'
p152
(dp153
g3
I0
sg4
I0
sg5
F0.0
sg6
I2151
sg7
I00
sg8
I0
sg9
I0
sg10
I-38346
sg11
I0
sg12
I0
sg13
I0
sg14
I0
sg15
I0
sg16
I38346
sg17
I0
sg18
I0
sg19
I0
sg20
I0
sg21
I0
sg22
F0.0
sg23
I2151
sg24
I0
sg25
F0.0
ssS'LAY KENNETH L'
p154
(dp155
g3
I4273
sg4
I202911
sg5
F0.4444444444444444
sg6
I99832
sg7
I01
sg8
I3600000
sg9
I123
sg10
I-300000
sg11
I0
sg12
I2411
sg13
I81525000
sg14
I36
sg15
I10359729
sg16
I0
sg17
I7000000
sg18
I49110078
sg19
I16
sg20
I14761694
sg21
I1072321
sg22
F0.028785396676807865
sg23
I103559793
sg24
I34348384
sg25
F0.5642405803884858
ssS'BUTTS ROBERT H'
p156
(dp157
g3
I0
sg4
I0
sg5
F0.0
sg6
I9410
sg7
I00
sg8
I175000
sg9
I0
sg10
I-75000
sg11
I0
sg12
I0
sg13
I0
sg14
I0
sg15
I150656
sg16
I0
sg17
I750000
sg18
I417619
sg19
I0
sg20
I417619
sg21
I261516
sg22
F0.0
sg23
I1271582
sg24
I0
sg25
F0.0
ssS'OLSON CINDY K'
p158
(dp159
g3
I1184
sg4
I77716
sg5
F0.28846153846153844
sg6
I63791
sg7
I00
sg8
I100000
sg9
I20
sg10
I0
sg11
I0
sg12
I856
sg13
I0
sg14
I52
sg15
I972
sg16
I0
sg17
I750000
sg18
I2606763
sg19
I15
sg20
I969729
sg21
I329078
sg22
F0.016891891891891893
sg23
I1321557
sg24
I1637034
sg25
F0.722972972972973
ssS'MCDONALD REBECCA'
p160
(dp161
g3
I894
sg4
I0
sg5
F0.07692307692307693
sg6
I0
sg7
I00
sg8
I0
sg9
I54
sg10
I0
sg11
I0
sg12
I720
sg13
I0
sg14
I13
sg15
I0
sg16
I0
sg17
I0
sg18
I1691366
sg19
I1
sg20
I934065
sg21
I0
sg22
F0.06040268456375839
sg23
I0
sg24
I757301
sg25
F0.8053691275167785
ssS'CUMBERLAND MICHAEL S'
p162
(dp163
g3
I0
sg4
I0
sg5
F0.0
sg6
I22344
sg7
I00
sg8
I275000
sg9
I0
sg10
I0
sg11
I0
sg12
I0
sg13
I0
sg14
I0
sg15
I713
sg16
I0
sg17
I325000
sg18
I207940
sg19
I0
sg20
I207940
sg21
I184899
sg22
F0.0
sg23
I807956
sg24
I0
sg25
F0.0
ssS'GAHN ROBERT S'
p164
(dp165
g3
I0
sg4
I73122
sg5
F0.0
sg6
I50080
sg7
I00
sg8
I0
sg9
I0
sg10
I-1042
sg11
I0
sg12
I0
sg13
I0
sg14
I0
sg15
I76547
sg16
I0
sg17
I509870
sg18
I318607
sg19
I0
sg20
I235370
sg21
I192008
sg22
F0.0
sg23
I900585
sg24
I83237
sg25
F0.0
ssS'MCCLELLAN GEORGE'
p166
(dp167
g3
I1744
sg4
I0
sg5
F0.0
sg6
I228763
sg7
I00
sg8
I0
sg9
I52
sg10
I-125000
sg11
I0
sg12
I1469
sg13
I0
sg14
I49
sg15
I51587
sg16
I0
sg17
I900000
sg18
I947861
sg19
I0
sg20
I441096
sg21
I263413
sg22
F0.02981651376146789
sg23
I1318763
sg24
I506765
sg25
F0.8423165137614679
ssS'HERMANN ROBERT J'
p168
(dp169
g3
I0
sg4
I0
sg5
F0.0
sg6
I48357
sg7
I00
sg8
I150000
sg9
I0
sg10
I-280000
sg11
I0
sg12
I0
sg13
I0
sg14
I0
sg15
I416441
sg16
I0
sg17
I700000
sg18
I668132
sg19
I0
sg20
I480632
sg21
I262663
sg22
F0.0
sg23
I1297461
sg24
I187500
sg25
F0.0
ssS'SCRIMSHAW MATTHEW'
p170
(dp171
g3
I0
sg4
I0
sg5
F0.0
sg6
I0
sg7
I00
sg8
I0
sg9
I0
sg10
I0
sg11
I0
sg12
I0
sg13
I0
sg14
I0
sg15
I0
sg16
I0
sg17
I0
sg18
I759557
sg19
I0
sg20
I0
sg21
I0
sg22
F0.0
sg23
I0
sg24
I759557
sg25
F0.0
ssS'GATHMANN WILLIAM D'
p172
(dp173
g3
I0
sg4
I0
sg5
F0.0
sg6
I0
sg7
I00
sg8
I0
sg9
I0
sg10
I0
sg11
I-72419
sg12
I0
sg13
I0
sg14
I0
sg15
I0
sg16
I0
sg17
I0
sg18
I1945360
sg19
I0
sg20
I264013
sg21
I0
sg22
F0.0
sg23
I0
sg24
I1753766
sg25
F0.0
ssS'HAEDICKE MARK E'
p174
(dp175
g3
I4009
sg4
I2157527
sg5
F0.03142709943328181
sg6
I76169
sg7
I00
sg8
I983346
sg9
I180
sg10
I-934484
sg11
I-329825
sg12
I1847
sg13
I0
sg14
I1941
sg15
I52382
sg16
I0
sg17
I1150000
sg18
I803094
sg19
I61
sg20
I524169
sg21
I374125
sg22
F0.04489897730107259
sg23
I3859065
sg24
I608750
sg25
F0.4607133948615615
ssS'BOWEN JR RAYMOND M'
p176
(dp177
g3
I1858
sg4
I0
sg5
F0.5555555555555556
sg6
I65907
sg7
I01
sg8
I974293
sg9
I140
sg10
I-833
sg11
I0
sg12
I1593
sg13
I0
sg14
I27
sg15
I1621
sg16
I0
sg17
I1350000
sg18
I252055
sg19
I15
sg20
I252055
sg21
I278601
sg22
F0.07534983853606028
sg23
I2669589
sg24
I0
sg25
F0.8573735199138859
ssS'GILLIS JOHN'
p178
(dp179
g3
I0
sg4
I0
sg5
F0.0
sg6
I0
sg7
I00
sg8
I0
sg9
I0
sg10
I0
sg11
I0
sg12
I0
sg13
I0
sg14
I0
sg15
I0
sg16
I0
sg17
I0
sg18
I85641
sg19
I0
sg20
I75838
sg21
I0
sg22
F0.0
sg23
I0
sg24
I9803
sg25
F0.0
ssS'FITZGERALD JAY L'
p180
(dp181
g3
I936
sg4
I0
sg5
F0.5
sg6
I23870
sg7
I00
sg8
I556416
sg9
I1
sg10
I0
sg11
I0
sg12
I723
sg13
I0
sg14
I16
sg15
I285414
sg16
I0
sg17
I350000
sg18
I1621236
sg19
I8
sg20
I956775
sg21
I199157
sg22
F0.0010683760683760685
sg23
I1414857
sg24
I664461
sg25
F0.7724358974358975
ssS'MORAN MICHAEL P'
p182
(dp183
g3
I672
sg4
I0
sg5
F0.0
sg6
I0
sg7
I00
sg8
I0
sg9
I0
sg10
I0
sg11
I0
sg12
I127
sg13
I0
sg14
I19
sg15
I0
sg16
I0
sg17
I0
sg18
I221141
sg19
I0
sg20
I161602
sg21
I0
sg22
F0.0
sg23
I0
sg24
I59539
sg25
F0.18898809523809523
ssS'REDMOND BRIAN L'
p184
(dp185
g3
I1671
sg4
I0
sg5
F0.22171945701357465
sg6
I14689
sg7
I00
sg8
I0
sg9
I204
sg10
I0
sg11
I0
sg12
I1063
sg13
I0
sg14
I221
sg15
I0
sg16
I0
sg17
I0
sg18
I7890324
sg19
I49
sg20
I381285
sg21
I96840
sg22
F0.12208258527827648
sg23
I111529
sg24
I7509039
sg25
F0.6361460203470976
ssS'BAZELIDES PHILIP J'
p186
(dp187
g3
I0
sg4
I684694
sg5
F0.0
sg6
I0
sg7
I00
sg8
I93750
sg9
I0
sg10
I0
sg11
I0
sg12
I0
sg13
I0
sg14
I0
sg15
I874
sg16
I0
sg17
I0
sg18
I1599641
sg19
I0
sg20
I0
sg21
I80818
sg22
F0.0
sg23
I860136
sg24
I1599641
sg25
F0.0
ssS'BELDEN TIMOTHY N'
p188
(dp189
g3
I7991
sg4
I2144013
sg5
F0.2231404958677686
sg6
I17355
sg7
I01
sg8
I0
sg9
I228
sg10
I-2334434
sg11
I0
sg12
I5521
sg13
I0
sg14
I484
sg15
I210698
sg16
I0
sg17
I5249999
sg18
I1110705
sg19
I108
sg20
I157569
sg21
I213999
sg22
F0.028532098610937303
sg23
I5501630
sg24
I953136
sg25
F0.6909022650481792
ssS'DURAN WILLIAM D'
p190
(dp191
g3
I904
sg4
I0
sg5
F0.25
sg6
I25785
sg7
I00
sg8
I1105218
sg9
I106
sg10
I0
sg11
I0
sg12
I599
sg13
I0
sg14
I12
sg15
I1568
sg16
I0
sg17
I750000
sg18
I1640910
sg19
I3
sg20
I189041
sg21
I210692
sg22
F0.1172566371681416
sg23
I2093263
sg24
I1451869
sg25
F0.6626106194690266
ssS'THORN TERENCE H'
p192
(dp193
g3
I266
sg4
I16586
sg5
F0.0
sg6
I46145
sg7
I00
sg8
I200000
sg9
I0
sg10
I0
sg11
I0
sg12
I73
sg13
I0
sg14
I41
sg15
I426629
sg16
I0
sg17
I0
sg18
I4817796
sg19
I0
sg20
I365320
sg21
I222093
sg22
F0.0
sg23
I911453
sg24
I4452476
sg25
F0.2744360902255639
ssS'FASTOW ANDREW S'
p194
(dp195
g3
I0
sg4
I0
sg5
F0.0
sg6
I55921
sg7
I01
sg8
I1736055
sg9
I0
sg10
I-1386055
sg11
I0
sg12
I0
sg13
I0
sg14
I0
sg15
I277464
sg16
I0
sg17
I1300000
sg18
I1794412
sg19
I0
sg20
I1794412
sg21
I440698
sg22
F0.0
sg23
I2424083
sg24
I0
sg25
F0.0
ssS'FOY JOE'
p196
(dp197
g3
I57
sg4
I181755
sg5
F0.0
sg6
I0
sg7
I00
sg8
I0
sg9
I0
sg10
I0
sg11
I0
sg12
I2
sg13
I0
sg14
I13
sg15
I0
sg16
I0
sg17
I0
sg18
I343434
sg19
I0
sg20
I0
sg21
I0
sg22
F0.0
sg23
I181755
sg24
I343434
sg25
F0.03508771929824561
ssS'CALGER CHRISTOPHER F'
p198
(dp199
g3
I2598
sg4
I0
sg5
F0.1736111111111111
sg6
I35818
sg7
I01
sg8
I375304
sg9
I199
sg10
I-262500
sg11
I0
sg12
I2188
sg13
I0
sg14
I144
sg15
I486
sg16
I0
sg17
I1250000
sg18
I126027
sg19
I25
sg20
I126027
sg21
I240189
sg22
F0.07659738260200154
sg23
I1639297
sg24
I0
sg25
F0.8421862971516552
ssS'RICE KENNETH D'
p200
(dp201
g3
I905
sg4
I0
sg5
F0.2222222222222222
sg6
I46950
sg7
I01
sg8
I1617011
sg9
I42
sg10
I-3504386
sg11
I0
sg12
I864
sg13
I0
sg14
I18
sg15
I174839
sg16
I0
sg17
I1750000
sg18
I22542539
sg19
I4
sg20
I2748364
sg21
I420636
sg22
F0.04640883977900553
sg23
I505050
sg24
I19794175
sg25
F0.9546961325966851
ssS'KAMINSKI WINCENTY J'
p202
(dp203
g3
I4607
sg4
I0
sg5
F0.011901447661469933
sg6
I83585
sg7
I00
sg8
I323466
sg9
I41
sg10
I0
sg11
I0
sg12
I583
sg13
I0
sg14
I14368
sg15
I4669
sg16
I0
sg17
I400000
sg18
I976037
sg19
I171
sg20
I126027
sg21
I275101
sg22
F0.008899500759713479
sg23
I1086821
sg24
I850010
sg25
F0.1265465595832429
ssS'LOCKHART EUGENE E'
p204
(dp205
g3
I0
sg4
I0
sg5
F0.0
sg6
I0
sg7
I00
sg8
I0
sg9
I0
sg10
I0
sg11
I0
sg12
I0
sg13
I0
sg14
I0
sg15
I0
sg16
I0
sg17
I0
sg18
I0
sg19
I0
sg20
I0
sg21
I0
sg22
F0.0
sg23
I0
sg24
I0
sg25
F0.0
ssS'COX DAVID'
p206
(dp207
g3
I102
sg4
I0
sg5
F0.12121212121212122
sg6
I27861
sg7
I00
sg8
I0
sg9
I0
sg10
I-41250
sg11
I0
sg12
I71
sg13
I0
sg14
I33
sg15
I494
sg16
I0
sg17
I800000
sg18
I495633
sg19
I4
sg20
I378082
sg21
I314288
sg22
F0.0
sg23
I1101393
sg24
I117551
sg25
F0.696078431372549
ssS'OVERDYKE JR JERE C'
p208
(dp209
g3
I0
sg4
I0
sg5
F0.0
sg6
I18834
sg7
I00
sg8
I135836
sg9
I0
sg10
I0
sg11
I0
sg12
I0
sg13
I0
sg14
I0
sg15
I176
sg16
I0
sg17
I0
sg18
I7307594
sg19
I0
sg20
I2041016
sg21
I94941
sg22
F0.0
sg23
I249787
sg24
I5266578
sg25
F0.0
ssS'PEREIRA PAULO V. FERRAZ'
p210
(dp211
g3
I0
sg4
I0
sg5
F0.0
sg6
I27942
sg7
I00
sg8
I0
sg9
I0
sg10
I-101250
sg11
I0
sg12
I0
sg13
I0
sg14
I0
sg15
I0
sg16
I101250
sg17
I0
sg18
I0
sg19
I0
sg20
I0
sg21
I0
sg22
F0.0
sg23
I27942
sg24
I0
sg25
F0.0
ssS'STABLER FRANK'
p212
(dp213
g3
I0
sg4
I0
sg5
F0.0
sg6
I16514
sg7
I00
sg8
I0
sg9
I0
sg10
I0
sg11
I0
sg12
I0
sg13
I0
sg14
I0
sg15
I356071
sg16
I0
sg17
I500000
sg18
I511734
sg19
I0
sg20
I511734
sg21
I239502
sg22
F0.0
sg23
I1112087
sg24
I0
sg25
F0.0
ssS'SKILLING JEFFREY K'
p214
(dp215
g3
I3627
sg4
I0
sg5
F0.2777777777777778
sg6
I29336
sg7
I01
sg8
I1920000
sg9
I88
sg10
I0
sg11
I0
sg12
I2042
sg13
I0
sg14
I108
sg15
I22122
sg16
I0
sg17
I5600000
sg18
I26093672
sg19
I30
sg20
I6843672
sg21
I1111258
sg22
F0.0242624758753791
sg23
I8682716
sg24
I19250000
sg25
F0.5629997242900469
ssS'BLAKE JR. NORMAN P'
p216
(dp217
g3
I0
sg4
I0
sg5
F0.0
sg6
I1279
sg7
I00
sg8
I0
sg9
I0
sg10
I-113784
sg11
I0
sg12
I0
sg13
I0
sg14
I0
sg15
I0
sg16
I113784
sg17
I0
sg18
I0
sg19
I0
sg20
I0
sg21
I0
sg22
F0.0
sg23
I1279
sg24
I0
sg25
F0.0
ssS'SHERRICK JEFFREY B'
p218
(dp219
g3
I613
sg4
I0
sg5
F0.72
sg6
I0
sg7
I00
sg8
I0
sg9
I39
sg10
I0
sg11
I0
sg12
I583
sg13
I0
sg14
I25
sg15
I0
sg16
I0
sg17
I0
sg18
I1832468
sg19
I18
sg20
I405999
sg21
I0
sg22
F0.0636215334420881
sg23
I0
sg24
I1426469
sg25
F0.9510603588907015
ssS'PRENTICE JAMES'
p220
(dp221
g3
I0
sg4
I564348
sg5
F0.0
sg6
I0
sg7
I00
sg8
I0
sg9
I0
sg10
I0
sg11
I0
sg12
I0
sg13
I0
sg14
I0
sg15
I0
sg16
I0
sg17
I0
sg18
I1095040
sg19
I0
sg20
I208809
sg21
I0
sg22
F0.0
sg23
I564348
sg24
I886231
sg25
F0.0
ssS'GRAY RODNEY'
p222
(dp223
g3
I0
sg4
I93585
sg5
F0.0
sg6
I0
sg7
I00
sg8
I365625
sg9
I0
sg10
I0
sg11
I0
sg12
I0
sg13
I0
sg14
I0
sg15
I680833
sg16
I0
sg17
I0
sg18
I0
sg19
I0
sg20
I0
sg21
I6615
sg22
F0.0
sg23
I1146658
sg24
I0
sg25
F0.0
ssS'PICKERING MARK R'
p224
(dp225
g3
I898
sg4
I0
sg5
F0.0
sg6
I31653
sg7
I00
sg8
I0
sg9
I7
sg10
I0
sg11
I0
sg12
I728
sg13
I400000
sg14
I67
sg15
I0
sg16
I0
sg17
I300000
sg18
I28798
sg19
I0
sg20
I0
sg21
I655037
sg22
F0.0077951002227171495
sg23
I1386690
sg24
I28798
sg25
F0.8106904231625836
ssS'THE TRAVEL AGENCY IN THE PARK'
p226
(dp227
g3
I0
sg4
I0
sg5
F0.0
sg6
I0
sg7
I00
sg8
I0
sg9
I0
sg10
I0
sg11
I0
sg12
I0
sg13
I0
sg14
I0
sg15
I362096
sg16
I0
sg17
I0
sg18
I0
sg19
I0
sg20
I0
sg21
I0
sg22
F0.0
sg23
I362096
sg24
I0
sg25
F0.0
ssS'NOLES JAMES L'
p228
(dp229
g3
I0
sg4
I774401
sg5
F0.0
sg6
I0
sg7
I00
sg8
I0
sg9
I0
sg10
I0
sg11
I-94556
sg12
I0
sg13
I0
sg14
I0
sg15
I0
sg16
I0
sg17
I0
sg18
I368705
sg19
I0
sg20
I463261
sg21
I0
sg22
F0.0
sg23
I774401
sg24
I0
sg25
F0.0
ssS'KEAN STEVEN J'
p230
(dp231
g3
I12754
sg4
I0
sg5
F0.05725699067909454
sg6
I41953
sg7
I00
sg8
I300000
sg9
I140
sg10
I0
sg11
I0
sg12
I3639
sg13
I0
sg14
I6759
sg15
I1231
sg16
I0
sg17
I1000000
sg18
I6153642
sg19
I387
sg20
I4131594
sg21
I404338
sg22
F0.010976948408342482
sg23
I1747522
sg24
I2022048
sg25
F0.2853222518425592
ssS'FOWLER PEGGY'
p232
(dp233
g3
I517
sg4
I0
sg5
F0.0
sg6
I0
sg7
I00
sg8
I0
sg9
I0
sg10
I0
sg11
I0
sg12
I10
sg13
I0
sg14
I36
sg15
I0
sg16
I0
sg17
I0
sg18
I1884748
sg19
I0
sg20
I560170
sg21
I0
sg22
F0.0
sg23
I0
sg24
I1324578
sg25
F0.019342359767891684
ssS'WASAFF GEORGE'
p234
(dp235
g3
I400
sg4
I831299
sg5
F0.23333333333333334
sg6
I0
sg7
I00
sg8
I200000
sg9
I22
sg10
I-583325
sg11
I0
sg12
I337
sg13
I0
sg14
I30
sg15
I1425
sg16
I0
sg17
I325000
sg18
I2056427
sg19
I7
sg20
I388167
sg21
I259996
sg22
F0.055
sg23
I1034395
sg24
I1668260
sg25
F0.8425
ssS'WHITE JR THOMAS E'
p236
(dp237
g3
I0
sg4
I0
sg5
F0.0
sg6
I81353
sg7
I00
sg8
I0
sg9
I0
sg10
I0
sg11
I0
sg12
I0
sg13
I0
sg14
I0
sg15
I1085463
sg16
I0
sg17
I450000
sg18
I15144123
sg19
I0
sg20
I13847074
sg21
I317543
sg22
F0.0
sg23
I1934359
sg24
I1297049
sg25
F0.0
ssS'CHRISTODOULOU DIOMEDES'
p238
(dp239
g3
I0
sg4
I0
sg5
F0.0
sg6
I0
sg7
I00
sg8
I0
sg9
I0
sg10
I0
sg11
I0
sg12
I0
sg13
I0
sg14
I0
sg15
I0
sg16
I0
sg17
I0
sg18
I6077885
sg19
I0
sg20
I950730
sg21
I0
sg22
F0.0
sg23
I0
sg24
I5127155
sg25
F0.0
ssS'ALLEN PHILLIP K'
p240
(dp241
g3
I2902
sg4
I2869717
sg5
F0.029612756264236904
sg6
I13868
sg7
I00
sg8
I304805
sg9
I47
sg10
I-3081055
sg11
I-126027
sg12
I1407
sg13
I0
sg14
I2195
sg15
I152
sg16
I0
sg17
I4175000
sg18
I1729541
sg19
I65
sg20
I126027
sg21
I201955
sg22
F0.016195727084769126
sg23
I4484442
sg24
I1729541
sg25
F0.4848380427291523
ssS'SHARP VICTORIA T'
p242
(dp243
g3
I3136
sg4
I187469
sg5
F0.04411764705882353
sg6
I116337
sg7
I00
sg8
I422158
sg9
I24
sg10
I0
sg11
I0
sg12
I2477
sg13
I0
sg14
I136
sg15
I2401
sg16
I0
sg17
I600000
sg18
I494136
sg19
I6
sg20
I213063
sg21
I248146
sg22
F0.007653061224489796
sg23
I1576511
sg24
I281073
sg25
F0.7898596938775511
ssS'JAEDICKE ROBERT'
p244
(dp245
g3
I0
sg4
I0
sg5
F0.0
sg6
I0
sg7
I00
sg8
I0
sg9
I0
sg10
I-25000
sg11
I-44093
sg12
I0
sg13
I0
sg14
I0
sg15
I0
sg16
I108750
sg17
I0
sg18
I431750
sg19
I0
sg20
I44093
sg21
I0
sg22
F0.0
sg23
I83750
sg24
I431750
sg25
F0.0
ssS'WINOKUR JR. HERBERT S'
p246
(dp247
g3
I0
sg4
I0
sg5
F0.0
sg6
I1413
sg7
I00
sg8
I0
sg9
I0
sg10
I-25000
sg11
I0
sg12
I0
sg13
I0
sg14
I0
sg15
I0
sg16
I108579
sg17
I0
sg18
I0
sg19
I0
sg20
I0
sg21
I0
sg22
F0.0
sg23
I84992
sg24
I0
sg25
F0.0
ssS'BROWN MICHAEL'
p248
(dp249
g3
I1486
sg4
I0
sg5
F0.024390243902439025
sg6
I49288
sg7
I00
sg8
I0
sg9
I13
sg10
I0
sg11
I0
sg12
I761
sg13
I0
sg14
I41
sg15
I0
sg16
I0
sg17
I0
sg18
I0
sg19
I1
sg20
I0
sg21
I0
sg22
F0.008748317631224764
sg23
I49288
sg24
I0
sg25
F0.5121130551816958
ssS'BADUM JAMES P'
p250
(dp251
g3
I0
sg4
I178980
sg5
F0.0
sg6
I3486
sg7
I00
sg8
I0
sg9
I0
sg10
I0
sg11
I0
sg12
I0
sg13
I0
sg14
I0
sg15
I0
sg16
I0
sg17
I0
sg18
I257817
sg19
I0
sg20
I0
sg21
I0
sg22
F0.0
sg23
I182466
sg24
I257817
sg25
F0.0
ssS'HUGHES JAMES A'
p252
(dp253
g3
I719
sg4
I0
sg5
F0.14705882352941177
sg6
I0
sg7
I00
sg8
I0
sg9
I35
sg10
I0
sg11
I0
sg12
I589
sg13
I0
sg14
I34
sg15
I0
sg16
I0
sg17
I0
sg18
I1118394
sg19
I5
sg20
I363428
sg21
I0
sg22
F0.048678720445062586
sg23
I0
sg24
I754966
sg25
F0.8191933240611962
ssS'REYNOLDS LAWRENCE'
p254
(dp255
g3
I0
sg4
I51365
sg5
F0.0
sg6
I8409
sg7
I00
sg8
I156250
sg9
I0
sg10
I-200000
sg11
I-140264
sg12
I0
sg13
I0
sg14
I0
sg15
I202052
sg16
I0
sg17
I100000
sg18
I4221891
sg19
I0
sg20
I201483
sg21
I76399
sg22
F0.0
sg23
I394475
sg24
I4160672
sg25
F0.0
ssS'DIMICHELE RICHARD G'
p256
(dp257
g3
I0
sg4
I0
sg5
F0.0
sg6
I35812
sg7
I00
sg8
I694862
sg9
I0
sg10
I0
sg11
I0
sg12
I0
sg13
I0
sg14
I0
sg15
I374689
sg16
I0
sg17
I1000000
sg18
I8317782
sg19
I0
sg20
I126027
sg21
I262788
sg22
F0.0
sg23
I2368151
sg24
I8191755
sg25
F0.0
ssS'BHATNAGAR SANJAY'
p258
(dp259
g3
I523
sg4
I0
sg5
F0.034482758620689655
sg6
I0
sg7
I00
sg8
I0
sg9
I0
sg10
I0
sg11
I15456290
sg12
I463
sg13
I0
sg14
I29
sg15
I137864
sg16
I137864
sg17
I0
sg18
I0
sg19
I1
sg20
I-2604490
sg21
I0
sg22
F0.0
sg23
I15456290
sg24
I2604490
sg25
F0.8852772466539197
ssS'CARTER REBECCA C'
p260
(dp261
g3
I312
sg4
I0
sg5
F0.4666666666666667
sg6
I0
sg7
I00
sg8
I75000
sg9
I29
sg10
I-159792
sg11
I-307301
sg12
I196
sg13
I0
sg14
I15
sg15
I540
sg16
I0
sg17
I300000
sg18
I0
sg19
I7
sg20
I307301
sg21
I261809
sg22
F0.09294871794871795
sg23
I477557
sg24
I0
sg25
F0.6282051282051282
ssS'BUCHANAN HAROLD G'
p262
(dp263
g3
I1088
sg4
I0
sg5
F0.0
sg6
I600
sg7
I00
sg8
I304805
sg9
I0
sg10
I0
sg11
I0
sg12
I23
sg13
I0
sg14
I125
sg15
I1215
sg16
I0
sg17
I500000
sg18
I1014505
sg19
I0
sg20
I189041
sg21
I248017
sg22
F0.0
sg23
I1054637
sg24
I825464
sg25
F0.021139705882352942
ssS'YEAP SOON'
p264
(dp265
g3
I0
sg4
I0
sg5
F0.0
sg6
I55097
sg7
I00
sg8
I0
sg9
I0
sg10
I0
sg11
I0
sg12
I0
sg13
I0
sg14
I0
sg15
I0
sg16
I0
sg17
I0
sg18
I192758
sg19
I0
sg20
I0
sg21
I0
sg22
F0.0
sg23
I55097
sg24
I192758
sg25
F0.0
ssS'MURRAY JULIA H'
p266
(dp267
g3
I2192
sg4
I0
sg5
F0.044444444444444446
sg6
I57580
sg7
I00
sg8
I125000
sg9
I11
sg10
I0
sg11
I0
sg12
I395
sg13
I0
sg14
I45
sg15
I330
sg16
I0
sg17
I400000
sg18
I597461
sg19
I2
sg20
I196983
sg21
I229284
sg22
F0.005018248175182482
sg23
I812194
sg24
I400478
sg25
F0.1802007299270073
ssS'GARLAND C KEVIN'
p268
(dp269
g3
I209
sg4
I0
sg5
F0.6136363636363636
sg6
I48405
sg7
I00
sg8
I375304
sg9
I10
sg10
I0
sg11
I0
sg12
I178
sg13
I0
sg14
I44
sg15
I60814
sg16
I0
sg17
I850000
sg18
I896153
sg19
I27
sg20
I259907
sg21
I231946
sg22
F0.04784688995215311
sg23
I1566469
sg24
I636246
sg25
F0.8516746411483254
ssS'DODSON KEITH'
p270
(dp271
g3
I176
sg4
I0
sg5
F0.21428571428571427
sg6
I28164
sg7
I00
sg8
I0
sg9
I10
sg10
I0
sg11
I0
sg12
I114
sg13
I0
sg14
I14
sg15
I774
sg16
I0
sg17
I70000
sg18
I0
sg19
I3
sg20
I0
sg21
I221003
sg22
F0.056818181818181816
sg23
I319941
sg24
I0
sg25
F0.6477272727272727
ssS'YEAGER F SCOTT'
p272
(dp273
g3
I0
sg4
I0
sg5
F0.0
sg6
I53947
sg7
I01
sg8
I0
sg9
I0
sg10
I0
sg11
I0
sg12
I0
sg13
I0
sg14
I0
sg15
I147950
sg16
I0
sg17
I0
sg18
I11884758
sg19
I0
sg20
I3576206
sg21
I158403
sg22
F0.0
sg23
I360300
sg24
I8308552
sg25
F0.0
ssS'HIRKO JOSEPH'
p274
(dp275
g3
I0
sg4
I10259
sg5
F0.0
sg6
I77978
sg7
I01
sg8
I0
sg9
I0
sg10
I0
sg11
I0
sg12
I0
sg13
I0
sg14
I0
sg15
I2856
sg16
I0
sg17
I0
sg18
I30766064
sg19
I0
sg20
I0
sg21
I0
sg22
F0.0
sg23
I91093
sg24
I30766064
sg25
F0.0
ssS'DIETRICH JANET R'
p276
(dp277
g3
I2572
sg4
I0
sg5
F0.2222222222222222
sg6
I3475
sg7
I00
sg8
I556416
sg9
I305
sg10
I0
sg11
I0
sg12
I1902
sg13
I0
sg14
I63
sg15
I473
sg16
I0
sg17
I600000
sg18
I1865087
sg19
I14
sg20
I315068
sg21
I250100
sg22
F0.11858475894245724
sg23
I1410464
sg24
I1550019
sg25
F0.73950233281493
ssS'DERRICK JR. JAMES V'
p278
(dp279
g3
I2181
sg4
I0
sg5
F0.022002200220022004
sg6
I51124
sg7
I00
sg8
I484000
sg9
I64
sg10
I-1284000
sg11
I-1787380
sg12
I1401
sg13
I0
sg14
I909
sg15
I7482
sg16
I0
sg17
I800000
sg18
I8831913
sg19
I20
sg20
I1787380
sg21
I492375
sg22
F0.029344337459880788
sg23
I550981
sg24
I8831913
sg25
F0.6423658872077029
ssS'FREVERT MARK A'
p280
(dp281
g3
I3275
sg4
I6426990
sg5
F0.2857142857142857
sg6
I86987
sg7
I00
sg8
I1617011
sg9
I242
sg10
I-3367011
sg11
I0
sg12
I2979
sg13
I2000000
sg14
I21
sg15
I7427621
sg16
I0
sg17
I2000000
sg18
I14622185
sg19
I6
sg20
I4188667
sg21
I1060932
sg22
F0.07389312977099237
sg23
I17252530
sg24
I10433518
sg25
F0.909618320610687
ssS'PAI LOU L'
p282
(dp283
g3
I0
sg4
I0
sg5
F0.0
sg6
I32047
sg7
I00
sg8
I0
sg9
I0
sg10
I0
sg11
I0
sg12
I0
sg13
I0
sg14
I0
sg15
I1829457
sg16
I0
sg17
I1000000
sg18
I23817930
sg19
I0
sg20
I8453763
sg21
I261879
sg22
F0.0
sg23
I3123383
sg24
I15364167
sg25
F0.0
ssS'BAY FRANKLIN R'
p284
(dp285
g3
I0
sg4
I260455
sg5
F0.0
sg6
I129142
sg7
I00
sg8
I0
sg9
I0
sg10
I-201641
sg11
I-82782
sg12
I0
sg13
I0
sg14
I0
sg15
I69
sg16
I0
sg17
I400000
sg18
I63014
sg19
I0
sg20
I145796
sg21
I239671
sg22
F0.0
sg23
I827696
sg24
I0
sg25
F0.0
ssS'HAYSLETT RODERICK J'
p286
(dp287
g3
I2649
sg4
I0
sg5
F0.03581526861451461
sg6
I0
sg7
I00
sg8
I0
sg9
I35
sg10
I0
sg11
I0
sg12
I571
sg13
I0
sg14
I1061
sg15
I0
sg16
I0
sg17
I0
sg18
I346663
sg19
I38
sg20
I346663
sg21
I0
sg22
F0.01321253303133258
sg23
I0
sg24
I0
sg25
F0.21555303888259722
ssS'FUGH JOHN L'
p288
(dp289
g3
I0
sg4
I50591
sg5
F0.0
sg6
I0
sg7
I00
sg8
I0
sg9
I0
sg10
I0
sg11
I0
sg12
I0
sg13
I0
sg14
I0
sg15
I0
sg16
I0
sg17
I0
sg18
I176378
sg19
I0
sg20
I0
sg21
I0
sg22
F0.0
sg23
I50591
sg24
I176378
sg25
F0.0
ssS'FALLON JAMES B'
p290
(dp291
g3
I1755
sg4
I0
sg5
F0.49333333333333335
sg6
I95924
sg7
I00
sg8
I374347
sg9
I42
sg10
I0
sg11
I0
sg12
I1604
sg13
I0
sg14
I75
sg15
I401481
sg16
I0
sg17
I2500000
sg18
I2332399
sg19
I37
sg20
I1392142
sg21
I304588
sg22
F0.023931623931623933
sg23
I3676340
sg24
I940257
sg25
F0.913960113960114
ssS'KOENIG MARK E'
p292
(dp293
g3
I2374
sg4
I0
sg5
F0.2459016393442623
sg6
I127017
sg7
I01
sg8
I300000
sg9
I53
sg10
I0
sg11
I0
sg12
I2271
sg13
I0
sg14
I61
sg15
I150458
sg16
I0
sg17
I700000
sg18
I1920055
sg19
I15
sg20
I1248318
sg21
I309946
sg22
F0.02232518955349621
sg23
I1587421
sg24
I671737
sg25
F0.9566133108677338
ssS'SAVAGE FRANK'
p294
(dp295
g3
I0
sg4
I0
sg5
F0.0
sg6
I0
sg7
I00
sg8
I0
sg9
I0
sg10
I-121284
sg11
I0
sg12
I0
sg13
I0
sg14
I0
sg15
I0
sg16
I125034
sg17
I0
sg18
I0
sg19
I0
sg20
I0
sg21
I0
sg22
F0.0
sg23
I3750
sg24
I0
sg25
F0.0
ssS'IZZO LAWRENCE L'
p296
(dp297
g3
I496
sg4
I0
sg5
F0.2631578947368421
sg6
I28093
sg7
I00
sg8
I312500
sg9
I28
sg10
I0
sg11
I0
sg12
I437
sg13
I0
sg14
I19
sg15
I1553729
sg16
I0
sg17
I0
sg18
I5819980
sg19
I5
sg20
I3654808
sg21
I85274
sg22
F0.056451612903225805
sg23
I1979596
sg24
I2165172
sg25
F0.8810483870967742
ssS'TILNEY ELIZABETH A'
p298
(dp299
g3
I460
sg4
I0
sg5
F0.5789473684210527
sg6
I0
sg7
I00
sg8
I275000
sg9
I10
sg10
I-575000
sg11
I0
sg12
I379
sg13
I0
sg14
I19
sg15
I152055
sg16
I0
sg17
I300000
sg18
I1168042
sg19
I11
sg20
I576792
sg21
I247338
sg22
F0.021739130434782608
sg23
I399393
sg24
I591250
sg25
F0.8239130434782609
ssS'MARTIN AMANDA K'
p300
(dp301
g3
I1522
sg4
I85430
sg5
F0.0
sg6
I8211
sg7
I00
sg8
I5145434
sg9
I8
sg10
I0
sg11
I0
sg12
I477
sg13
I0
sg14
I230
sg15
I2818454
sg16
I0
sg17
I0
sg18
I2070306
sg19
I0
sg20
I0
sg21
I349487
sg22
F0.005256241787122208
sg23
I8407016
sg24
I2070306
sg25
F0.31340341655716164
ssS'BUY RICHARD B'
p302
(dp303
g3
I3523
sg4
I649584
sg5
F0.06742640075973409
sg6
I0
sg7
I00
sg8
I769862
sg9
I156
sg10
I-694862
sg11
I0
sg12
I2333
sg13
I0
sg14
I1053
sg15
I400572
sg16
I0
sg17
I900000
sg18
I3444470
sg19
I71
sg20
I901657
sg21
I330546
sg22
F0.04428044280442804
sg23
I2355702
sg24
I2542813
sg25
F0.6622196991200682
ssS'GRAMM WENDY L'
p304
(dp305
g3
I0
sg4
I0
sg5
F0.0
sg6
I0
sg7
I00
sg8
I0
sg9
I0
sg10
I0
sg11
I0
sg12
I0
sg13
I0
sg14
I0
sg15
I0
sg16
I119292
sg17
I0
sg18
I0
sg19
I0
sg20
I0
sg21
I0
sg22
F0.0
sg23
I119292
sg24
I0
sg25
F0.0
ssS'CAUSEY RICHARD A'
p306
(dp307
g3
I1892
sg4
I0
sg5
F0.24489795918367346
sg6
I30674
sg7
I01
sg8
I350000
sg9
I58
sg10
I-235000
sg11
I0
sg12
I1585
sg13
I0
sg14
I49
sg15
I307895
sg16
I0
sg17
I1000000
sg18
I2502063
sg19
I12
sg20
I2502063
sg21
I415189
sg22
F0.0306553911205074
sg23
I1868758
sg24
I0
sg25
F0.837737843551797
ssS'TAYLOR MITCHELL S'
p308
(dp309
g3
I533
sg4
I227449
sg5
F0.0
sg6
I0
sg7
I00
sg8
I0
sg9
I0
sg10
I0
sg11
I0
sg12
I300
sg13
I0
sg14
I29
sg15
I0
sg16
I0
sg17
I600000
sg18
I3745048
sg19
I0
sg20
I563798
sg21
I265214
sg22
F0.0
sg23
I1092663
sg24
I3181250
sg25
F0.5628517823639775
ssS'DONAHUE JR JEFFREY M'
p310
(dp311
g3
I865
sg4
I0
sg5
F0.5
sg6
I96268
sg7
I00
sg8
I0
sg9
I188
sg10
I-300000
sg11
I0
sg12
I772
sg13
I0
sg14
I22
sg15
I891
sg16
I0
sg17
I800000
sg18
I1080988
sg19
I11
sg20
I315068
sg21
I278601
sg22
F0.21734104046242775
sg23
I875760
sg24
I765920
sg25
F0.892485549132948
ssS'GLISAN JR BEN F'
p312
(dp313
g3
I873
sg4
I0
sg5
F0.375
sg6
I125978
sg7
I01
sg8
I71023
sg9
I52
sg10
I0
sg11
I0
sg12
I874
sg13
I0
sg14
I16
sg15
I200308
sg16
I0
sg17
I600000
sg18
I778546
sg19
I6
sg20
I393818
sg21
I274975
sg22
F0.05956471935853379
sg23
I1272284
sg24
I384728
sg25
F1.0011454753722795
ss.