(lp0
S'poi'
p1
aS'salary'
p2
aS'to_messages'
p3
aS'total_payments'
p4
aS'exercised_stock_options'
p5
aS'bonus'
p6
aS'restricted_stock'
p7
aS'shared_receipt_with_poi'
p8
aS'restricted_stock_deferred'
p9
aS'expenses'
p10
aS'from_messages'
p11
aS'other'
p12
aS'from_this_person_to_poi'
p13
aS'long_term_incentive'
p14
aS'from_poi_to_this_person'
p15
aS'ratio_receipt_messages'
p16
aS'ratio_sent_messages'
p17
aS'ratio_shared_receipt'
p18
a.